ARM GAS  C:\Users\DADSPC~1\AppData\Local\Temp\ccNXNUFC.s 			page 1


   1              		.syntax unified
   2              		.cpu cortex-m0plus
   3              		.fpu softvfp
   4              		.eabi_attribute 20, 1
   5              		.eabi_attribute 21, 1
   6              		.eabi_attribute 23, 3
   7              		.eabi_attribute 24, 1
   8              		.eabi_attribute 25, 1
   9              		.eabi_attribute 26, 1
  10              		.eabi_attribute 30, 1
  11              		.eabi_attribute 34, 0
  12              		.eabi_attribute 18, 4
  13              		.thumb
  14              		.syntax unified
  15              		.file	"main.c"
  16              		.text
  17              	.Ltext0:
  18              		.cfi_sections	.debug_frame
  19              		.section	.text.pollI2CwriteBuffer,"ax",%progbits
  20              		.align	2
  21              		.code	16
  22              		.thumb_func
  23              		.type	pollI2CwriteBuffer, %function
  24              	pollI2CwriteBuffer:
  25              	.LFB34:
  26              		.file 1 "main.c"
   1:main.c        **** /* ========================================
   2:main.c        ****  *
   3:main.c        ****  * Copyright KA6S, 2021
   4:main.c        ****  * All Rights Reserved
   5:main.c        ****  * UNPUBLISHED, LICENSED SOFTWARE.
   6:main.c        ****  *
   7:main.c        ****  *
   8:main.c        ****  *
   9:main.c        ****  * ========================================
  10:main.c        **** */
  11:main.c        **** #include "project.h"
  12:main.c        **** 
  13:main.c        **** /* Valid command packet size of five bytes */
  14:main.c        **** #define PACKET_SIZE          (0x05u)
  15:main.c        **** 
  16:main.c        **** /* Master write and read buffer of size five and three bytes */
  17:main.c        **** #define SL_RD_BUFFER_SIZE    (0x03u)
  18:main.c        **** #define SL_WR_BUFFER_SIZE    (PACKET_SIZE)
  19:main.c        **** 
  20:main.c        **** /* Start and end of packet markers */
  21:main.c        **** #define PACKET_SOP           (0x01u)
  22:main.c        **** #define PACKET_EOP           (0x17u)
  23:main.c        **** 
  24:main.c        **** /* Command valid status */
  25:main.c        **** #define STS_CMD_DONE         (0x00u)
  26:main.c        **** #define STS_CMD_FAIL         (0xFFu)
  27:main.c        **** 
  28:main.c        **** /* Packet positions */
  29:main.c        **** #define PACKET_SOP_POS       (0x00u)
  30:main.c        **** #define PACKET_STS_POS       (0x01u)
  31:main.c        **** #define PACKET_RED_POS       (0x01u)
ARM GAS  C:\Users\DADSPC~1\AppData\Local\Temp\ccNXNUFC.s 			page 2


  32:main.c        **** #define PACKET_GREEN_POS     (0x02u)
  33:main.c        **** #define PACKET_BLUE_POS      (0x03u)
  34:main.c        **** #define PACKET_EOP_POS       (0x04u)
  35:main.c        **** 
  36:main.c        **** 
  37:main.c        **** /* Controls the frequency at which the light changes */
  38:main.c        **** #define CMD_TO_CMD_DELAY    (500u)
  39:main.c        **** #define CMD_STALL           (20u)
  40:main.c        **** 
  41:main.c        **** // SPI
  42:main.c        **** #define BUFFER_SIZE (64UL)
  43:main.c        **** /* Data buffers */
  44:main.c        **** 
  45:main.c        **** 
  46:main.c        **** 
  47:main.c        **** /*******************************************************************************
  48:main.c        **** * Function prototypes
  49:main.c        **** *******************************************************************************/
  50:main.c        **** static void pollI2CwriteBuffer(void);
  51:main.c        **** 
  52:main.c        **** /* I2C read and write buffers */
  53:main.c        **** uint8_t i2cReadBuffer [SL_RD_BUFFER_SIZE] = {PACKET_SOP, STS_CMD_FAIL, PACKET_EOP};
  54:main.c        **** uint8_t i2cWriteBuffer[SL_WR_BUFFER_SIZE] ;
  55:main.c        **** 
  56:main.c        **** // SPI read/write buffers
  57:main.c        **** /*
  58:main.c        **** uint8_t bufferTX(BUFFER_SIZE);  
  59:main.c        **** uint8_t bufferRX(BUFFER_SIZE);
  60:main.c        **** */
  61:main.c        **** 
  62:main.c        **** 
  63:main.c        **** int main(void)
  64:main.c        **** {
  65:main.c        ****     CyGlobalIntEnable; /* Enable global interrupts. */
  66:main.c        **** 
  67:main.c        ****     /* Place your initialization/startup code here (e.g. MyInst_Start()) */
  68:main.c        ****     SPI_Start();
  69:main.c        ****     
  70:main.c        ****     // Turn off all of the Antenna controls - leaving 1 enabled at reset
  71:main.c        ****     ant1_Write(1);
  72:main.c        ****     ant2_Write(0);
  73:main.c        ****     ant3_Write(0);
  74:main.c        ****     
  75:main.c        **** 
  76:main.c        ****    
  77:main.c        ****     /* Initialize and enable I2C component in slave mode. */
  78:main.c        ****     I2C_I2CSlaveInitReadBuf (i2cReadBuffer,  BUFFER_SIZE);
  79:main.c        ****     I2C_I2CSlaveInitWriteBuf(i2cWriteBuffer, BUFFER_SIZE);
  80:main.c        ****     I2C_Start();
  81:main.c        **** 
  82:main.c        ****     for(;;)
  83:main.c        ****     {
  84:main.c        ****        /* continuously poll to check whether master has 
  85:main.c        ****           written  data to write buffer. */
  86:main.c        ****        pollI2CwriteBuffer();
  87:main.c        ****        /* Poll every 1ms */
  88:main.c        ****         CyDelay(1);   // Redefine this for 1ms 
ARM GAS  C:\Users\DADSPC~1\AppData\Local\Temp\ccNXNUFC.s 			page 3


  89:main.c        ****     }
  90:main.c        **** 
  91:main.c        **** 
  92:main.c        **** }
  93:main.c        **** /*******************************************************************************
  94:main.c        **** * Function Name: pollI2CwriteBuffer
  95:main.c        **** ****************************************************************************//**
  96:main.c        **** *
  97:main.c        **** * Checks the status of slave to know if any data is written by master into write
  98:main.c        **** * buffer. If data is written, check for error. If no error while writing 
  99:main.c        **** * then check whether required number of bytes is written. If required number of bytes are 
 100:main.c        **** * written, if start and end packets are correct set the TCPWM compare value to the respective 
 101:main.c        **** * RGB LED TCPWM's to control the color.
 102:main.c        **** *
 103:main.c        **** * \param None
 104:main.c        **** *
 105:main.c        **** * \return
 106:main.c        **** *  None
 107:main.c        **** *
 108:main.c        **** *******************************************************************************/
 109:main.c        **** static void pollI2CwriteBuffer(void)
 110:main.c        **** {
  27              		.loc 1 110 0
  28              		.cfi_startproc
  29              		@ args = 0, pretend = 0, frame = 0
  30              		@ frame_needed = 0, uses_anonymous_args = 0
  31 0000 10B5     		push	{r4, lr}
  32              		.cfi_def_cfa_offset 8
  33              		.cfi_offset 4, -8
  34              		.cfi_offset 14, -4
 111:main.c        ****     int work;
 112:main.c        ****     if( 0UL != (I2C_I2CSlaveStatus() & I2C_I2C_SSTAT_WR_CMPLT))
  35              		.loc 1 112 0
  36 0002 FFF7FEFF 		bl	I2C_I2CSlaveStatus
  37              	.LVL0:
  38 0006 C306     		lsls	r3, r0, #27
  39 0008 46D5     		bpl	.L1
 113:main.c        ****     {
 114:main.c        ****  
 115:main.c        ****      if (PACKET_SIZE == I2C_I2CSlaveGetWriteBufSize() ) 
  40              		.loc 1 115 0
  41 000a FFF7FEFF 		bl	I2C_I2CSlaveGetWriteBufSize
  42              	.LVL1:
  43 000e 0528     		cmp	r0, #5
  44 0010 36D1     		bne	.L3
 116:main.c        ****         {
 117:main.c        ****            
 118:main.c        ****          /* Check start and end of packet markers. */
 119:main.c        ****          if ((i2cWriteBuffer[PACKET_SOP_POS] == PACKET_SOP) &&
  45              		.loc 1 119 0
  46 0012 224B     		ldr	r3, .L7
  47 0014 1B78     		ldrb	r3, [r3]
  48 0016 012B     		cmp	r3, #1
  49 0018 32D1     		bne	.L3
 120:main.c        ****              (i2cWriteBuffer[PACKET_EOP_POS] == PACKET_EOP))
  50              		.loc 1 120 0 discriminator 1
  51 001a 204A     		ldr	r2, .L7
ARM GAS  C:\Users\DADSPC~1\AppData\Local\Temp\ccNXNUFC.s 			page 4


  52 001c 1279     		ldrb	r2, [r2, #4]
 119:main.c        ****              (i2cWriteBuffer[PACKET_EOP_POS] == PACKET_EOP))
  53              		.loc 1 119 0 discriminator 1
  54 001e 172A     		cmp	r2, #23
  55 0020 2ED1     		bne	.L3
 121:main.c        ****             {                  
 122:main.c        ****               // Send SPI message                   
 123:main.c        ****               if(i2cWriteBuffer[PACKET_SOP_POS] == 0x1) 
  56              		.loc 1 123 0
  57 0022 012B     		cmp	r3, #1
  58 0024 07D1     		bne	.L4
 124:main.c        ****                 {
 125:main.c        ****                   // ALEX RX control
 126:main.c        ****                   // Need SS select = 2
 127:main.c        ****                   SPI_SpiSetActiveSlaveSelect(SPI_SPI_SLAVE_SELECT2);
  59              		.loc 1 127 0
  60 0026 0338     		subs	r0, r0, #3
  61 0028 FFF7FEFF 		bl	SPI_SpiSetActiveSlaveSelect
  62              	.LVL2:
 128:main.c        ****                   SPI_SpiUartPutArray(i2cWriteBuffer[PACKET_SOP_POS+1], 2);
  63              		.loc 1 128 0
  64 002c 1B4B     		ldr	r3, .L7
  65 002e 5878     		ldrb	r0, [r3, #1]
  66 0030 0221     		movs	r1, #2
  67 0032 FFF7FEFF 		bl	SPI_SpiUartPutArray
  68              	.LVL3:
  69              	.L4:
 129:main.c        ****             
 130:main.c        ****                 }
 131:main.c        ****             if(i2cWriteBuffer[PACKET_SOP_POS] == 0x2) 
  70              		.loc 1 131 0
  71 0036 194B     		ldr	r3, .L7
  72 0038 1B78     		ldrb	r3, [r3]
  73 003a 022B     		cmp	r3, #2
  74 003c 20D1     		bne	.L3
 132:main.c        ****                 {
 133:main.c        ****                   // ALEX TX control
 134:main.c        ****                   // Need SS select = 1
 135:main.c        ****                   work = i2cWriteBuffer[PACKET_SOP_POS+1];
  75              		.loc 1 135 0
  76 003e 174B     		ldr	r3, .L7
  77 0040 5C78     		ldrb	r4, [r3, #1]
  78              	.LVL4:
 136:main.c        ****                   work = (work >> 4);
  79              		.loc 1 136 0
  80 0042 2411     		asrs	r4, r4, #4
  81              	.LVL5:
 137:main.c        ****                   if(work & 0x2) {
  82              		.loc 1 137 0
  83 0044 A307     		lsls	r3, r4, #30
  84 0046 08D5     		bpl	.L5
 138:main.c        ****                       ant1_Write(0);
  85              		.loc 1 138 0
  86 0048 0020     		movs	r0, #0
  87 004a FFF7FEFF 		bl	ant1_Write
  88              	.LVL6:
 139:main.c        ****                       ant2_Write(1);
ARM GAS  C:\Users\DADSPC~1\AppData\Local\Temp\ccNXNUFC.s 			page 5


  89              		.loc 1 139 0
  90 004e 0120     		movs	r0, #1
  91 0050 FFF7FEFF 		bl	ant2_Write
  92              	.LVL7:
 140:main.c        ****                       ant3_Write(0);
  93              		.loc 1 140 0
  94 0054 0020     		movs	r0, #0
  95 0056 FFF7FEFF 		bl	ant3_Write
  96              	.LVL8:
  97              	.L5:
 141:main.c        ****                   }
 142:main.c        ****                   if(work & 0x4) {
  98              		.loc 1 142 0
  99 005a 6307     		lsls	r3, r4, #29
 100 005c 08D5     		bpl	.L6
 143:main.c        ****                       ant1_Write(0);
 101              		.loc 1 143 0
 102 005e 0020     		movs	r0, #0
 103 0060 FFF7FEFF 		bl	ant1_Write
 104              	.LVL9:
 144:main.c        ****                       ant2_Write(0);
 105              		.loc 1 144 0
 106 0064 0020     		movs	r0, #0
 107 0066 FFF7FEFF 		bl	ant2_Write
 108              	.LVL10:
 145:main.c        ****                       ant3_Write(1);
 109              		.loc 1 145 0
 110 006a 0120     		movs	r0, #1
 111 006c FFF7FEFF 		bl	ant3_Write
 112              	.LVL11:
 113              	.L6:
 146:main.c        ****                   }
 147:main.c        ****                  
 148:main.c        ****                   SPI_SpiSetActiveSlaveSelect(SPI_SPI_SLAVE_SELECT1);
 114              		.loc 1 148 0
 115 0070 0020     		movs	r0, #0
 116 0072 FFF7FEFF 		bl	SPI_SpiSetActiveSlaveSelect
 117              	.LVL12:
 149:main.c        ****                   SPI_SpiUartPutArray(i2cWriteBuffer[PACKET_SOP_POS+1], 2);
 118              		.loc 1 149 0
 119 0076 094B     		ldr	r3, .L7
 120 0078 5878     		ldrb	r0, [r3, #1]
 121 007a 0221     		movs	r1, #2
 122 007c FFF7FEFF 		bl	SPI_SpiUartPutArray
 123              	.LVL13:
 124              	.L3:
 150:main.c        ****                 }
 151:main.c        ****             }
 152:main.c        ****         }
 153:main.c        ****        
 154:main.c        ****         
 155:main.c        ****         /* Configure write buffer for the next write. */
 156:main.c        ****         I2C_I2CSlaveClearWriteBuf();
 125              		.loc 1 156 0
 126 0080 FFF7FEFF 		bl	I2C_I2CSlaveClearWriteBuf
 127              	.LVL14:
 157:main.c        ****         (void) I2C_I2CSlaveClearWriteStatus();
ARM GAS  C:\Users\DADSPC~1\AppData\Local\Temp\ccNXNUFC.s 			page 6


 128              		.loc 1 157 0
 129 0084 FFF7FEFF 		bl	I2C_I2CSlaveClearWriteStatus
 130              	.LVL15:
 158:main.c        ****        
 159:main.c        ****     
 160:main.c        ****         /* Check read complete event. */
 161:main.c        ****         if (0u != (I2C_I2CSlaveStatus() & I2C_I2C_SSTAT_RD_CMPLT))
 131              		.loc 1 161 0
 132 0088 FFF7FEFF 		bl	I2C_I2CSlaveStatus
 133              	.LVL16:
 134 008c C307     		lsls	r3, r0, #31
 135 008e 03D5     		bpl	.L1
 162:main.c        ****         {
 163:main.c        ****             /* Clear the slave read buffer and status */
 164:main.c        ****             I2C_I2CSlaveClearReadBuf();
 136              		.loc 1 164 0
 137 0090 FFF7FEFF 		bl	I2C_I2CSlaveClearReadBuf
 138              	.LVL17:
 165:main.c        ****             (void) I2C_I2CSlaveClearReadStatus();
 139              		.loc 1 165 0
 140 0094 FFF7FEFF 		bl	I2C_I2CSlaveClearReadStatus
 141              	.LVL18:
 142              	.L1:
 166:main.c        ****         }
 167:main.c        ****     }
 168:main.c        **** 
 169:main.c        **** }
 143              		.loc 1 169 0
 144              		@ sp needed
 145 0098 10BD     		pop	{r4, pc}
 146              	.L8:
 147 009a C046     		.align	2
 148              	.L7:
 149 009c 00000000 		.word	i2cWriteBuffer
 150              		.cfi_endproc
 151              	.LFE34:
 152              		.size	pollI2CwriteBuffer, .-pollI2CwriteBuffer
 153              		.section	.text.main,"ax",%progbits
 154              		.align	2
 155              		.global	main
 156              		.code	16
 157              		.thumb_func
 158              		.type	main, %function
 159              	main:
 160              	.LFB33:
  64:main.c        ****     CyGlobalIntEnable; /* Enable global interrupts. */
 161              		.loc 1 64 0
 162              		.cfi_startproc
 163              		@ Volatile: function does not return.
 164              		@ args = 0, pretend = 0, frame = 0
 165              		@ frame_needed = 0, uses_anonymous_args = 0
 166 0000 10B5     		push	{r4, lr}
 167              		.cfi_def_cfa_offset 8
 168              		.cfi_offset 4, -8
 169              		.cfi_offset 14, -4
  65:main.c        **** 
 170              		.loc 1 65 0
ARM GAS  C:\Users\DADSPC~1\AppData\Local\Temp\ccNXNUFC.s 			page 7


 171              		.syntax divided
 172              	@ 65 "main.c" 1
 173 0002 62B6     		CPSIE   i
 174              	@ 0 "" 2
  68:main.c        ****     
 175              		.loc 1 68 0
 176              		.thumb
 177              		.syntax unified
 178 0004 FFF7FEFF 		bl	SPI_Start
 179              	.LVL19:
  71:main.c        ****     ant2_Write(0);
 180              		.loc 1 71 0
 181 0008 0120     		movs	r0, #1
 182 000a FFF7FEFF 		bl	ant1_Write
 183              	.LVL20:
  72:main.c        ****     ant3_Write(0);
 184              		.loc 1 72 0
 185 000e 0020     		movs	r0, #0
 186 0010 FFF7FEFF 		bl	ant2_Write
 187              	.LVL21:
  73:main.c        ****     
 188              		.loc 1 73 0
 189 0014 0020     		movs	r0, #0
 190 0016 FFF7FEFF 		bl	ant3_Write
 191              	.LVL22:
  78:main.c        ****     I2C_I2CSlaveInitWriteBuf(i2cWriteBuffer, BUFFER_SIZE);
 192              		.loc 1 78 0
 193 001a 4021     		movs	r1, #64
 194 001c 0748     		ldr	r0, .L11
 195 001e FFF7FEFF 		bl	I2C_I2CSlaveInitReadBuf
 196              	.LVL23:
  79:main.c        ****     I2C_Start();
 197              		.loc 1 79 0
 198 0022 4021     		movs	r1, #64
 199 0024 0648     		ldr	r0, .L11+4
 200 0026 FFF7FEFF 		bl	I2C_I2CSlaveInitWriteBuf
 201              	.LVL24:
  80:main.c        **** 
 202              		.loc 1 80 0
 203 002a FFF7FEFF 		bl	I2C_Start
 204              	.LVL25:
 205              	.L10:
  86:main.c        ****        /* Poll every 1ms */
 206              		.loc 1 86 0 discriminator 1
 207 002e FFF7FEFF 		bl	pollI2CwriteBuffer
 208              	.LVL26:
  88:main.c        ****     }
 209              		.loc 1 88 0 discriminator 1
 210 0032 0120     		movs	r0, #1
 211 0034 FFF7FEFF 		bl	CyDelay
 212              	.LVL27:
 213 0038 F9E7     		b	.L10
 214              	.L12:
 215 003a C046     		.align	2
 216              	.L11:
 217 003c 00000000 		.word	.LANCHOR0
 218 0040 00000000 		.word	i2cWriteBuffer
ARM GAS  C:\Users\DADSPC~1\AppData\Local\Temp\ccNXNUFC.s 			page 8


 219              		.cfi_endproc
 220              	.LFE33:
 221              		.size	main, .-main
 222              		.comm	i2cWriteBuffer,5,4
 223              		.global	i2cReadBuffer
 224              		.data
 225              		.align	2
 226              		.set	.LANCHOR0,. + 0
 227              		.type	i2cReadBuffer, %object
 228              		.size	i2cReadBuffer, 3
 229              	i2cReadBuffer:
 230 0000 01       		.byte	1
 231 0001 FF       		.byte	-1
 232 0002 17       		.byte	23
 233              		.text
 234              	.Letext0:
 235              		.file 2 "c:\\program files (x86)\\cypress\\psoc creator\\4.4\\psoc creator\\import\\gnu\\arm\\5.4.
 236              		.file 3 "c:\\program files (x86)\\cypress\\psoc creator\\4.4\\psoc creator\\import\\gnu\\arm\\5.4.
 237              		.file 4 "Generated_Source\\PSoC4/I2C_I2C.h"
 238              		.file 5 "Generated_Source\\PSoC4/SPI_SPI_UART.h"
 239              		.file 6 "Generated_Source\\PSoC4/ant1.h"
 240              		.file 7 "Generated_Source\\PSoC4/ant2.h"
 241              		.file 8 "Generated_Source\\PSoC4/ant3.h"
 242              		.file 9 "Generated_Source\\PSoC4/SPI.h"
 243              		.file 10 "Generated_Source\\PSoC4/I2C.h"
 244              		.file 11 "Generated_Source\\PSoC4/CyLib.h"